; Function Attrs: nounwind uwtable
define hidden void @zif_get_called_class(ptr noundef %0, ptr noundef writeonly captures(none) %1) #0 {
  %3 = getelementptr inbounds nuw i8, ptr %0, i64 44
  %4 = load i32, ptr %3, align 4, !tbaa !28
  %.not = icmp eq i32 %4, 0
  br i1 %.not, label %6, label %5, !prof !69

5:                                                ; preds = %2
  tail call void @zend_wrong_parameters_none_error() #14
  br label %23

6:                                                ; preds = %2
  %7 = tail call ptr @zend_get_called_scope(ptr noundef nonnull %0) #14
  %.not11 = icmp eq ptr %7, null
  br i1 %.not11, label %8, label %11

8:                                                ; preds = %6
  tail call void (ptr, ptr, ...) @zend_throw_error(ptr noundef null, ptr noundef nonnull @.str.28) #14
  %9 = load ptr, ptr getelementptr inbounds nuw (i8, ptr @executor_globals, i64 960), align 8, !tbaa !67
  %10 = icmp ne ptr %9, null
  tail call void @llvm.assume(i1 %10)
  br label %23

11:                                               ; preds = %6
  %12 = getelementptr inbounds nuw i8, ptr %7, i64 8
  %13 = load ptr, ptr %12, align 8, !tbaa !8
  store ptr %13, ptr %1, align 8, !tbaa !28
  %14 = getelementptr inbounds nuw i8, ptr %13, i64 4
  %15 = load i32, ptr %14, align 4, !tbaa !28
  %16 = and i32 %15, 64
  %.not12 = icmp eq i32 %16, 0
  br i1 %.not12, label %19, label %17

17:                                               ; preds = %11
  %18 = getelementptr inbounds nuw i8, ptr %1, i64 8
  store i32 6, ptr %18, align 8, !tbaa !28
  br label %23

19:                                               ; preds = %11
  %20 = load i32, ptr %13, align 4, !tbaa !30
  %21 = add i32 %20, 1
  store i32 %21, ptr %13, align 4, !tbaa !30
  %22 = getelementptr inbounds nuw i8, ptr %1, i64 8
  store i32 262, ptr %22, align 8, !tbaa !28
  br label %23

23:                                               ; preds = %17, %19, %8, %5
  ret void
}